; Function Attrs: nounwind uwtable
define hidden void @recff_bit64_tobit(ptr noundef %0, ptr noundef readonly captures(none) %1) local_unnamed_addr #0 {
  %3 = getelementptr inbounds i8, ptr %0, i64 -352
  %4 = load i64, ptr %3, align 8, !tbaa !34
  %5 = inttoptr i64 %4 to ptr
  %6 = load ptr, ptr %5, align 8, !tbaa !45
  %7 = getelementptr inbounds nuw i8, ptr %6, i64 264
  %8 = getelementptr inbounds nuw i8, ptr %0, i64 160
  %9 = load ptr, ptr %8, align 8, !tbaa !4
  %10 = load i32, ptr %9, align 4, !tbaa !27
  %11 = load ptr, ptr %1, align 8, !tbaa !28
  %12 = and i32 %10, 520093696
  %13 = icmp eq i32 %12, 67108864
  br i1 %13, label %14, label %crec_bit64_arg.exit, !prof !61

14:                                               ; preds = %2
  %15 = load i64, ptr %11, align 8, !tbaa !31
  %16 = and i64 %15, 140737488355327
  %17 = inttoptr i64 %16 to ptr
  %18 = tail call i32 @lj_strscan_num(ptr noundef %17, ptr noundef nonnull %11) #8
  %.not.i = icmp eq i32 %18, 0
  br i1 %.not.i, label %crec_bit64_arg.exit, label %19

19:                                               ; preds = %14
  %20 = trunc i32 %10 to i16
  %21 = getelementptr inbounds nuw i8, ptr %0, i64 184
  %22 = getelementptr inbounds nuw i8, ptr %0, i64 188
  store i16 24206, ptr %22, align 4, !tbaa !31
  store i16 %20, ptr %21, align 8, !tbaa !31
  %23 = getelementptr inbounds nuw i8, ptr %0, i64 186
  store i16 0, ptr %23, align 2, !tbaa !31
  %24 = tail call i32 @lj_opt_fold(ptr noundef nonnull %0) #8
  br label %crec_bit64_arg.exit

crec_bit64_arg.exit:                              ; preds = %2, %14, %19
  %.0.i = phi i32 [ %24, %19 ], [ %10, %14 ], [ %10, %2 ]
  %25 = tail call fastcc i32 @crec_ct_tv(ptr noundef nonnull %0, ptr noundef nonnull %7, i32 noundef 0, i32 noundef %.0.i, ptr noundef %11)
  %26 = lshr i32 %25, 24
  %27 = and i32 %26, 31
  %28 = add nsw i32 %27, -15
  %29 = icmp ult i32 %28, 5
  br i1 %29, label %38, label %30

30:                                               ; preds = %crec_bit64_arg.exit
  %31 = trunc i32 %25 to i16
  %32 = trunc nuw nsw i32 %27 to i16
  %33 = or disjoint i16 %32, 608
  %34 = getelementptr inbounds nuw i8, ptr %0, i64 184
  %35 = getelementptr inbounds nuw i8, ptr %0, i64 188
  store i16 23315, ptr %35, align 4, !tbaa !31
  store i16 %31, ptr %34, align 8, !tbaa !31
  %36 = getelementptr inbounds nuw i8, ptr %0, i64 186
  store i16 %33, ptr %36, align 2, !tbaa !31
  %37 = tail call i32 @lj_opt_fold(ptr noundef nonnull %0) #8
  br label %38

38:                                               ; preds = %30, %crec_bit64_arg.exit
  %.0 = phi i32 [ %25, %crec_bit64_arg.exit ], [ %37, %30 ]
  %39 = load ptr, ptr %8, align 8, !tbaa !4
  store i32 %.0, ptr %39, align 4, !tbaa !27
  ret void
}